target datalayout = "e-m:e-p270:32:32-p271:32:32-p272:64:64-i64:64-i128:128-f80:128-n8:16:32:64-S128"
target triple = "x86_64-pc-linux-gnu"

%struct.ForEachState = type { ptr, i32 }
%struct.List = type { i32, i32, i32, ptr, [0 x %union.ListCell] }
%union.ListCell = type { ptr }
%union.anon.8 = type { %struct.FunctionCallInfoBaseData }
%struct.FunctionCallInfoBaseData = type { ptr, ptr, ptr, i32, i8, i16, [0 x %struct.NullableDatum] }
%struct.NullableDatum = type { i64, i8 }
%struct.FmgrInfo = type { ptr, i32, i16, i8, i8, i8, ptr, ptr, ptr }
%struct.PgStat_FunctionCallUsage = type { ptr, %struct.instr_time, %struct.instr_time, %struct.instr_time }
%struct.instr_time = type { i64 }

@.str.2 = private unnamed_addr constant [16 x i8] c"event_trigger.c\00", align 1
@CurrentMemoryContext = external global ptr, align 8
@.str.37 = private unnamed_addr constant [22 x i8] c"event trigger context\00", align 1
@.str.38 = private unnamed_addr constant [22 x i8] c"EventTriggerInvoke %u\00", align 1
@__func__.EventTriggerInvoke = private unnamed_addr constant [19 x i8] c"EventTriggerInvoke\00", align 1

; Function Attrs: inlinehint nounwind uwtable
define internal ptr @MemoryContextSwitchTo(ptr noundef %0) #6 {
  %2 = alloca ptr, align 8
  %3 = alloca ptr, align 8
  store ptr %0, ptr %2, align 8
  call void @llvm.lifetime.start.p0(i64 8, ptr %3) #10
  %4 = load ptr, ptr @CurrentMemoryContext, align 8
  store ptr %4, ptr %3, align 8
  %5 = load ptr, ptr %2, align 8
  store ptr %5, ptr @CurrentMemoryContext, align 8
  %6 = load ptr, ptr %3, align 8
  call void @llvm.lifetime.end.p0(i64 8, ptr %3) #10
  ret ptr %6
}

; Function Attrs: nounwind uwtable
define internal void @EventTriggerInvoke(ptr noundef %0, ptr noundef %1) #0 {
  %3 = alloca ptr, align 8
  %4 = alloca ptr, align 8
  %5 = alloca ptr, align 8
  %6 = alloca ptr, align 8
  %7 = alloca ptr, align 8
  %8 = alloca i8, align 1
  %9 = alloca i32, align 4
  %10 = alloca %struct.ForEachState, align 8
  %11 = alloca %union.anon.8, align 8
  %12 = alloca ptr, align 8
  %13 = alloca i32, align 4
  %14 = alloca %struct.FmgrInfo, align 8
  %15 = alloca %struct.PgStat_FunctionCallUsage, align 8
  store ptr %0, ptr %3, align 8
  store ptr %1, ptr %4, align 8
  call void @llvm.lifetime.start.p0(i64 8, ptr %5) #10
  call void @llvm.lifetime.start.p0(i64 8, ptr %6) #10
  call void @llvm.lifetime.start.p0(i64 8, ptr %7) #10
  call void @llvm.lifetime.start.p0(i64 1, ptr %8) #10
  store i8 1, ptr %8, align 1
  call void @check_stack_depth()
  br label %16

16:                                               ; preds = %2
  br label %17

17:                                               ; preds = %16
  br label %18

18:                                               ; preds = %17
  store i32 1, ptr %9, align 4
  %19 = load ptr, ptr @CurrentMemoryContext, align 8
  %20 = call ptr @AllocSetContextCreateInternal(ptr noundef %19, ptr noundef @.str.37, i64 noundef 0, i64 noundef 8192, i64 noundef 8388608)
  store ptr %20, ptr %5, align 8
  %21 = load ptr, ptr %5, align 8
  %22 = call ptr @MemoryContextSwitchTo(ptr noundef %21)
  store ptr %22, ptr %6, align 8
  call void @llvm.lifetime.start.p0(i64 16, ptr %10) #10
  %23 = getelementptr inbounds nuw %struct.ForEachState, ptr %10, i32 0, i32 0
  %24 = load ptr, ptr %3, align 8
  store ptr %24, ptr %23, align 8
  %25 = getelementptr inbounds nuw %struct.ForEachState, ptr %10, i32 0, i32 1
  store i32 0, ptr %25, align 8
  %26 = getelementptr i8, ptr %10, i64 12
  call void @llvm.memset.p0.i64(ptr align 4 %26, i8 0, i64 4, i1 false)
  br label %27

27:                                               ; preds = %98, %18
  %28 = getelementptr inbounds nuw %struct.ForEachState, ptr %10, i32 0, i32 0
  %29 = load ptr, ptr %28, align 8
  %30 = icmp ne ptr %29, null
  br i1 %30, label %31, label %48

31:                                               ; preds = %27
  %32 = getelementptr inbounds nuw %struct.ForEachState, ptr %10, i32 0, i32 1
  %33 = load i32, ptr %32, align 8
  %34 = getelementptr inbounds nuw %struct.ForEachState, ptr %10, i32 0, i32 0
  %35 = load ptr, ptr %34, align 8
  %36 = getelementptr inbounds nuw %struct.List, ptr %35, i32 0, i32 1
  %37 = load i32, ptr %36, align 4
  %38 = icmp slt i32 %33, %37
  br i1 %38, label %39, label %48

39:                                               ; preds = %31
  %40 = getelementptr inbounds nuw %struct.ForEachState, ptr %10, i32 0, i32 0
  %41 = load ptr, ptr %40, align 8
  %42 = getelementptr inbounds nuw %struct.List, ptr %41, i32 0, i32 3
  %43 = load ptr, ptr %42, align 8
  %44 = getelementptr inbounds nuw %struct.ForEachState, ptr %10, i32 0, i32 1
  %45 = load i32, ptr %44, align 8
  %46 = sext i32 %45 to i64
  %47 = getelementptr inbounds %union.ListCell, ptr %43, i64 %46
  store ptr %47, ptr %7, align 8
  br label %49

48:                                               ; preds = %31, %27
  store ptr null, ptr %7, align 8
  br label %49

49:                                               ; preds = %48, %39
  %50 = phi i32 [ 1, %39 ], [ 0, %48 ]
  %51 = icmp ne i32 %50, 0
  br i1 %51, label %53, label %52

52:                                               ; preds = %49
  call void @llvm.lifetime.end.p0(i64 16, ptr %10) #10
  br label %102

53:                                               ; preds = %49
  call void @llvm.lifetime.start.p0(i64 32, ptr %11) #10
  call void @llvm.lifetime.start.p0(i64 8, ptr %12) #10
  store ptr %11, ptr %12, align 8
  call void @llvm.lifetime.start.p0(i64 4, ptr %13) #10
  %54 = load ptr, ptr %7, align 8
  %55 = load i32, ptr %54, align 8
  store i32 %55, ptr %13, align 4
  call void @llvm.lifetime.start.p0(i64 48, ptr %14) #10
  call void @llvm.lifetime.start.p0(i64 32, ptr %15) #10
  br label %56

56:                                               ; preds = %53
  br i1 false, label %57, label %59

57:                                               ; preds = %56
  %58 = call zeroext i1 @errstart_cold(i32 noundef 14, ptr noundef null) #11
  br i1 %58, label %61, label %64

59:                                               ; preds = %56
  %60 = call zeroext i1 @errstart(i32 noundef 14, ptr noundef null)
  br i1 %60, label %61, label %64

61:                                               ; preds = %59, %57
  %62 = load i32, ptr %13, align 4
  %63 = call i32 (ptr, ...) @errmsg_internal(ptr noundef @.str.38, i32 noundef %62)
  call void @errfinish(ptr noundef @.str.2, i32 noundef 1091, ptr noundef @__func__.EventTriggerInvoke)
  br label %64

64:                                               ; preds = %61, %59, %57
  br label %65

65:                                               ; preds = %64
  br label %66

66:                                               ; preds = %65
  %67 = load i8, ptr %8, align 1, !range !8, !noundef !9
  %68 = trunc i8 %67 to i1
  br i1 %68, label %69, label %70

69:                                               ; preds = %66
  store i8 0, ptr %8, align 1
  br label %71

70:                                               ; preds = %66
  call void @CommandCounterIncrement()
  br label %71

71:                                               ; preds = %70, %69
  %72 = load i32, ptr %13, align 4
  call void @fmgr_info(i32 noundef %72, ptr noundef %14)
  br label %73

73:                                               ; preds = %71
  %74 = load ptr, ptr %12, align 8
  %75 = getelementptr inbounds nuw %struct.FunctionCallInfoBaseData, ptr %74, i32 0, i32 0
  store ptr %14, ptr %75, align 8
  %76 = load ptr, ptr %4, align 8
  %77 = load ptr, ptr %12, align 8
  %78 = getelementptr inbounds nuw %struct.FunctionCallInfoBaseData, ptr %77, i32 0, i32 1
  store ptr %76, ptr %78, align 8
  %79 = load ptr, ptr %12, align 8
  %80 = getelementptr inbounds nuw %struct.FunctionCallInfoBaseData, ptr %79, i32 0, i32 2
  store ptr null, ptr %80, align 8
  %81 = load ptr, ptr %12, align 8
  %82 = getelementptr inbounds nuw %struct.FunctionCallInfoBaseData, ptr %81, i32 0, i32 3
  store i32 0, ptr %82, align 8
  %83 = load ptr, ptr %12, align 8
  %84 = getelementptr inbounds nuw %struct.FunctionCallInfoBaseData, ptr %83, i32 0, i32 4
  store i8 0, ptr %84, align 4
  %85 = load ptr, ptr %12, align 8
  %86 = getelementptr inbounds nuw %struct.FunctionCallInfoBaseData, ptr %85, i32 0, i32 5
  store i16 0, ptr %86, align 2
  br label %87

87:                                               ; preds = %73
  br label %88

88:                                               ; preds = %87
  %89 = load ptr, ptr %12, align 8
  call void @pgstat_init_function_usage(ptr noundef %89, ptr noundef %15)
  %90 = load ptr, ptr %12, align 8
  %91 = getelementptr inbounds nuw %struct.FunctionCallInfoBaseData, ptr %90, i32 0, i32 0
  %92 = load ptr, ptr %91, align 8
  %93 = getelementptr inbounds nuw %struct.FmgrInfo, ptr %92, i32 0, i32 0
  %94 = load ptr, ptr %93, align 8
  %95 = load ptr, ptr %12, align 8
  %96 = call i64 %94(ptr noundef %95)
  call void @pgstat_end_function_usage(ptr noundef %15, i1 noundef zeroext true)
  %97 = load ptr, ptr %5, align 8
  call void @MemoryContextReset(ptr noundef %97)
  call void @llvm.lifetime.end.p0(i64 32, ptr %15) #10
  call void @llvm.lifetime.end.p0(i64 48, ptr %14) #10
  call void @llvm.lifetime.end.p0(i64 4, ptr %13) #10
  call void @llvm.lifetime.end.p0(i64 8, ptr %12) #10
  call void @llvm.lifetime.end.p0(i64 32, ptr %11) #10
  br label %98

98:                                               ; preds = %88
  %99 = getelementptr inbounds nuw %struct.ForEachState, ptr %10, i32 0, i32 1
  %100 = load i32, ptr %99, align 8
  %101 = add i32 %100, 1
  store i32 %101, ptr %99, align 8
  br label %27, !llvm.loop !11

102:                                              ; preds = %52
  %103 = load ptr, ptr %6, align 8
  %104 = call ptr @MemoryContextSwitchTo(ptr noundef %103)
  %105 = load ptr, ptr %5, align 8
  call void @MemoryContextDelete(ptr noundef %105)
  call void @llvm.lifetime.end.p0(i64 1, ptr %8) #10
  call void @llvm.lifetime.end.p0(i64 8, ptr %7) #10
  call void @llvm.lifetime.end.p0(i64 8, ptr %6) #10
  call void @llvm.lifetime.end.p0(i64 8, ptr %5) #10
  ret void
}