; Function Attrs: nounwind uwtable
define internal fastcc void @EventTriggerInvoke(ptr noundef nonnull readonly captures(none) %0, ptr noundef nonnull %1) unnamed_addr #0 {
  %3 = alloca %union.anon.8, align 8
  %4 = alloca %struct.FmgrInfo, align 8
  %5 = alloca %struct.PgStat_FunctionCallUsage, align 8
  tail call void @check_stack_depth() #16
  %6 = load ptr, ptr @CurrentMemoryContext, align 8
  %7 = tail call ptr @AllocSetContextCreateInternal(ptr noundef %6, ptr noundef nonnull @.str.37, i64 noundef 0, i64 noundef 8192, i64 noundef 8388608) #16
  %8 = load ptr, ptr @CurrentMemoryContext, align 8
  store ptr %7, ptr @CurrentMemoryContext, align 8
  %9 = getelementptr inbounds nuw i8, ptr %0, i64 4
  %10 = load i32, ptr %9, align 4
  %.not26 = icmp sgt i32 %10, 0
  br i1 %.not26, label %.lr.ph, label %._crit_edge

.lr.ph:                                           ; preds = %2
  %11 = getelementptr inbounds nuw i8, ptr %0, i64 16
  %12 = getelementptr inbounds nuw i8, ptr %3, i64 8
  %13 = getelementptr inbounds nuw i8, ptr %3, i64 16
  %14 = getelementptr inbounds nuw i8, ptr %3, i64 24
  %15 = getelementptr inbounds nuw i8, ptr %3, i64 28
  %16 = getelementptr inbounds nuw i8, ptr %3, i64 30
  br label %17

._crit_edge:                                      ; preds = %26, %2
  store ptr %8, ptr @CurrentMemoryContext, align 8
  call void @MemoryContextDelete(ptr noundef %7) #16
  ret void

17:                                               ; preds = %.lr.ph, %26
  %indvars.iv = phi i64 [ 0, %.lr.ph ], [ %indvars.iv.next, %26 ]
  %.02228 = phi i1 [ true, %.lr.ph ], [ false, %26 ]
  %18 = load ptr, ptr %11, align 8
  %19 = getelementptr inbounds nuw %union.ListCell, ptr %18, i64 %indvars.iv
  call void @llvm.lifetime.start.p0(i64 32, ptr nonnull %3) #16
  %20 = load i32, ptr %19, align 8
  call void @llvm.lifetime.start.p0(i64 48, ptr nonnull %4) #16
  call void @llvm.lifetime.start.p0(i64 32, ptr nonnull %5) #16
  %21 = call zeroext i1 @errstart(i32 noundef 14, ptr noundef null) #16
  br i1 %21, label %22, label %24

22:                                               ; preds = %17
  %23 = call i32 (ptr, ...) @errmsg_internal(ptr noundef nonnull @.str.38, i32 noundef %20) #16
  call void @errfinish(ptr noundef nonnull @.str.2, i32 noundef 1091, ptr noundef nonnull @__func__.EventTriggerInvoke) #16
  br label %24

24:                                               ; preds = %22, %17
  br i1 %.02228, label %26, label %25

25:                                               ; preds = %24
  call void @CommandCounterIncrement() #16
  br label %26

26:                                               ; preds = %24, %25
  call void @fmgr_info(i32 noundef %20, ptr noundef nonnull %4) #16
  store ptr %4, ptr %3, align 8
  store ptr %1, ptr %12, align 8
  store ptr null, ptr %13, align 8
  store i32 0, ptr %14, align 8
  store i8 0, ptr %15, align 4
  store i16 0, ptr %16, align 2
  call void @pgstat_init_function_usage(ptr noundef nonnull %3, ptr noundef nonnull %5) #16
  %27 = load ptr, ptr %3, align 8
  %28 = load ptr, ptr %27, align 8
  %29 = call i64 %28(ptr noundef nonnull %3) #16
  call void @pgstat_end_function_usage(ptr noundef nonnull %5, i1 noundef zeroext true) #16
  call void @MemoryContextReset(ptr noundef %7) #16
  call void @llvm.lifetime.end.p0(i64 32, ptr nonnull %5) #16
  call void @llvm.lifetime.end.p0(i64 48, ptr nonnull %4) #16
  call void @llvm.lifetime.end.p0(i64 32, ptr nonnull %3) #16
  %indvars.iv.next = add nuw nsw i64 %indvars.iv, 1
  %30 = load i32, ptr %9, align 4
  %31 = sext i32 %30 to i64
  %.not = icmp slt i64 %indvars.iv.next, %31
  br i1 %.not, label %17, label %._crit_edge, !llvm.loop !12
}